target datalayout = "e-m:e-p270:32:32-p271:32:32-p272:64:64-i64:64-i128:128-f80:128-n8:16:32:64-S128"
target triple = "x86_64-unknown-linux-gnu"

%"class.grpc_core::RefCountedPtr.0" = type { ptr }
%"class.grpc_core::RefCountedPtr.1" = type { ptr }
%"class.std::basic_string_view" = type { i64, ptr }
%"class.(anonymous namespace)::grpc_fake_channel_security_connector" = type { %class.grpc_channel_security_connector, ptr, %"class.std::optional", i8, [7 x i8], %"class.std::optional" }
%class.grpc_channel_security_connector = type { %class.grpc_security_connector, %"class.grpc_core::RefCountedPtr.0", %"class.grpc_core::RefCountedPtr.1", %"class.std::unique_ptr" }
%class.grpc_security_connector = type { %"class.grpc_core::RefCounted", %"class.std::basic_string_view" }
%"class.grpc_core::RefCounted" = type { %"class.grpc_core::PolymorphicRefCount", %"class.grpc_core::RefCount" }
%"class.grpc_core::PolymorphicRefCount" = type { ptr }
%"class.grpc_core::RefCount" = type { %"struct.std::atomic" }
%"struct.std::atomic" = type { %"struct.std::__atomic_base" }
%"struct.std::__atomic_base" = type { i64 }
%"class.std::unique_ptr" = type { %"struct.std::__uniq_ptr_data" }
%"struct.std::__uniq_ptr_data" = type { %"class.std::__uniq_ptr_impl" }
%"class.std::__uniq_ptr_impl" = type { %"class.std::tuple" }
%"class.std::tuple" = type { %"struct.std::_Tuple_impl" }
%"struct.std::_Tuple_impl" = type { %"struct.std::_Head_base.8" }
%"struct.std::_Head_base.8" = type { ptr }
%"class.std::optional" = type { %"struct.std::_Optional_base" }
%"struct.std::_Optional_base" = type { %"struct.std::_Optional_payload" }
%"struct.std::_Optional_payload" = type { %"struct.std::_Optional_payload.base", [7 x i8] }
%"struct.std::_Optional_payload.base" = type { %"struct.std::_Optional_payload_base.base" }
%"struct.std::_Optional_payload_base.base" = type <{ %"union.std::_Optional_payload_base<std::__cxx11::basic_string<char>>::_Storage", i8 }>
%"union.std::_Optional_payload_base<std::__cxx11::basic_string<char>>::_Storage" = type { %"class.std::__cxx11::basic_string" }
%"class.std::__cxx11::basic_string" = type { %"struct.std::__cxx11::basic_string<char>::_Alloc_hider", i64, %union.anon }
%"struct.std::__cxx11::basic_string<char>::_Alloc_hider" = type { ptr }
%union.anon = type { i64, [8 x i8] }
%struct.tsi_peer = type { ptr, i64 }
%"struct.std::_Optional_payload_base" = type <{ %"union.std::_Optional_payload_base<std::__cxx11::basic_string<char>>::_Storage", i8, [7 x i8] }>

@.str.6 = private unnamed_addr constant [160 x i8] c"generated/home/dtcxzyw/WorkSpace/Projects/compilers/llvm-opt-benchmark/bench/grpc/grpc/src/core/lib/security/security_connector/fake/fake_security_connector.cc\00", align 1
@.str.19 = private unnamed_addr constant [2 x i8] c";\00", align 1
@.str.20 = private unnamed_addr constant [41 x i8] c"Invalid expected targets arg value: '%s'\00", align 1
@.str.21 = private unnamed_addr constant [120 x i8] c"Invalid expected targets arg value: '%s'. Expectations for LB channels must be of the form 'be1,be2,be3,...;lb1,lb2,...\00", align 1
@.str.22 = private unnamed_addr constant [46 x i8] c"LB target '%s' not found in expected set '%s'\00", align 1
@.str.23 = private unnamed_addr constant [51 x i8] c"Backend target '%s' not found in expected set '%s'\00", align 1

; Function Attrs: mustprogress nounwind uwtable
define linkonce_odr noundef nonnull align 8 dereferenceable(32) ptr @_ZNKSt22_Optional_payload_baseINSt7__cxx1112basic_stringIcSt11char_traitsIcESaIcEEEE6_M_getEv(ptr noundef nonnull align 8 dereferenceable(33) %this) #5 comdat align 2 {
entry:
  %this.addr = alloca ptr, align 8
  store ptr %this, ptr %this.addr, align 8
  %this1 = load ptr, ptr %this.addr, align 8
  %_M_payload = getelementptr inbounds %"struct.std::_Optional_payload_base", ptr %this1, i32 0, i32 0
  ret ptr %_M_payload
}

; Function Attrs: mustprogress nounwind uwtable
define linkonce_odr noundef nonnull align 8 dereferenceable(32) ptr @_ZNKSt19_Optional_base_implINSt7__cxx1112basic_stringIcSt11char_traitsIcESaIcEEESt14_Optional_baseIS5_Lb0ELb0EEE6_M_getEv(ptr noundef nonnull align 1 dereferenceable(1) %this) #5 comdat align 2 {
entry:
  %this.addr = alloca ptr, align 8
  store ptr %this, ptr %this.addr, align 8
  %this1 = load ptr, ptr %this.addr, align 8
  br label %do.body

do.body:                                          ; preds = %entry
  br label %do.cond

do.cond:                                          ; preds = %do.body
  br label %do.end

do.end:                                           ; preds = %do.cond
  %_M_payload = getelementptr inbounds %"struct.std::_Optional_base", ptr %this1, i32 0, i32 0
  %call = call noundef nonnull align 8 dereferenceable(32) ptr @_ZNKSt22_Optional_payload_baseINSt7__cxx1112basic_stringIcSt11char_traitsIcESaIcEEEE6_M_getEv(ptr noundef nonnull align 8 dereferenceable(33) %_M_payload) #3
  ret ptr %call
}

; Function Attrs: mustprogress nounwind uwtable
define linkonce_odr noundef zeroext i1 @_ZNKSt19_Optional_base_implINSt7__cxx1112basic_stringIcSt11char_traitsIcESaIcEEESt14_Optional_baseIS5_Lb0ELb0EEE13_M_is_engagedEv(ptr noundef nonnull align 1 dereferenceable(1) %this) #5 comdat align 2 {
entry:
  %this.addr = alloca ptr, align 8
  store ptr %this, ptr %this.addr, align 8
  %this1 = load ptr, ptr %this.addr, align 8
  %_M_payload = getelementptr inbounds %"struct.std::_Optional_base", ptr %this1, i32 0, i32 0
  %_M_engaged = getelementptr inbounds %"struct.std::_Optional_payload_base", ptr %_M_payload, i32 0, i32 1
  %0 = load i8, ptr %_M_engaged, align 8
  %tobool = trunc i8 %0 to i1
  ret i1 %tobool
}

; Function Attrs: mustprogress nounwind uwtable
define linkonce_odr noundef ptr @_ZNKSt8optionalINSt7__cxx1112basic_stringIcSt11char_traitsIcESaIcEEEEptEv(ptr noundef nonnull align 8 dereferenceable(40) %this) #5 comdat align 2 {
entry:
  %this.addr = alloca ptr, align 8
  store ptr %this, ptr %this.addr, align 8
  %this1 = load ptr, ptr %this.addr, align 8
  %call = call noundef nonnull align 8 dereferenceable(32) ptr @_ZNKSt19_Optional_base_implINSt7__cxx1112basic_stringIcSt11char_traitsIcESaIcEEESt14_Optional_baseIS5_Lb0ELb0EEE6_M_getEv(ptr noundef nonnull align 1 dereferenceable(1) %this1) #3
  ret ptr %call
}

; Function Attrs: mustprogress nounwind uwtable
define linkonce_odr noundef zeroext i1 @_ZNKSt8optionalINSt7__cxx1112basic_stringIcSt11char_traitsIcESaIcEEEE9has_valueEv(ptr noundef nonnull align 8 dereferenceable(40) %this) #5 comdat align 2 {
entry:
  %this.addr = alloca ptr, align 8
  store ptr %this, ptr %this.addr, align 8
  %this1 = load ptr, ptr %this.addr, align 8
  %call = call noundef zeroext i1 @_ZNKSt19_Optional_base_implINSt7__cxx1112basic_stringIcSt11char_traitsIcESaIcEEESt14_Optional_baseIS5_Lb0ELb0EEE13_M_is_engagedEv(ptr noundef nonnull align 1 dereferenceable(1) %this1) #3
  ret i1 %call
}

; Function Attrs: mustprogress uwtable
define internal void @_ZNK12_GLOBAL__N_136grpc_fake_channel_security_connector22fake_secure_name_checkEv(ptr noundef nonnull align 8 dereferenceable(152) %this) #4 align 2 {
entry:
  %this.addr = alloca ptr, align 8
  %lbs_and_backends = alloca ptr, align 8
  %lbs_and_backends_size = alloca i64, align 8
  %success = alloca i8, align 1
  %i = alloca i64, align 8
  store ptr %this, ptr %this.addr, align 8
  %this1 = load ptr, ptr %this.addr, align 8
  %expected_targets_ = getelementptr inbounds %"class.(anonymous namespace)::grpc_fake_channel_security_connector", ptr %this1, i32 0, i32 2
  %call = call noundef zeroext i1 @_ZNKSt8optionalINSt7__cxx1112basic_stringIcSt11char_traitsIcESaIcEEEE9has_valueEv(ptr noundef nonnull align 8 dereferenceable(40) %expected_targets_) #3
  br i1 %call, label %if.end, label %if.then

if.then:                                          ; preds = %entry
  br label %if.end35

if.end:                                           ; preds = %entry
  store ptr null, ptr %lbs_and_backends, align 8
  store i64 0, ptr %lbs_and_backends_size, align 8
  store i8 0, ptr %success, align 1
  %expected_targets_2 = getelementptr inbounds %"class.(anonymous namespace)::grpc_fake_channel_security_connector", ptr %this1, i32 0, i32 2
  %call3 = call noundef ptr @_ZNKSt8optionalINSt7__cxx1112basic_stringIcSt11char_traitsIcESaIcEEEEptEv(ptr noundef nonnull align 8 dereferenceable(40) %expected_targets_2) #3
  %call4 = call noundef ptr @_ZNKSt7__cxx1112basic_stringIcSt11char_traitsIcESaIcEE5c_strEv(ptr noundef nonnull align 8 dereferenceable(32) %call3) #3
  call void @_Z16gpr_string_splitPKcS0_PPPcPm(ptr noundef %call4, ptr noundef @.str.19, ptr noundef %lbs_and_backends, ptr noundef %lbs_and_backends_size)
  %0 = load i64, ptr %lbs_and_backends_size, align 8
  %cmp = icmp ugt i64 %0, 2
  br i1 %cmp, label %if.then6, label %lor.lhs.false

lor.lhs.false:                                    ; preds = %if.end
  %1 = load i64, ptr %lbs_and_backends_size, align 8
  %cmp5 = icmp eq i64 %1, 0
  br i1 %cmp5, label %if.then6, label %if.end10

if.then6:                                         ; preds = %lor.lhs.false, %if.end
  %expected_targets_7 = getelementptr inbounds %"class.(anonymous namespace)::grpc_fake_channel_security_connector", ptr %this1, i32 0, i32 2
  %call8 = call noundef ptr @_ZNKSt8optionalINSt7__cxx1112basic_stringIcSt11char_traitsIcESaIcEEEEptEv(ptr noundef nonnull align 8 dereferenceable(40) %expected_targets_7) #3
  %call9 = call noundef ptr @_ZNKSt7__cxx1112basic_stringIcSt11char_traitsIcESaIcEE5c_strEv(ptr noundef nonnull align 8 dereferenceable(32) %call8) #3
  call void (ptr, i32, i32, ptr, ...) @gpr_log(ptr noundef @.str.6, i32 noundef 168, i32 noundef 2, ptr noundef @.str.20, ptr noundef %call9)
  br label %done

if.end10:                                         ; preds = %lor.lhs.false
  %is_lb_channel_ = getelementptr inbounds %"class.(anonymous namespace)::grpc_fake_channel_security_connector", ptr %this1, i32 0, i32 3
  %2 = load i8, ptr %is_lb_channel_, align 8
  %tobool = trunc i8 %2 to i1
  br i1 %tobool, label %if.then11, label %if.else

if.then11:                                        ; preds = %if.end10
  %3 = load i64, ptr %lbs_and_backends_size, align 8
  %cmp12 = icmp ne i64 %3, 2
  br i1 %cmp12, label %if.then13, label %if.end17

if.then13:                                        ; preds = %if.then11
  %expected_targets_14 = getelementptr inbounds %"class.(anonymous namespace)::grpc_fake_channel_security_connector", ptr %this1, i32 0, i32 2
  %call15 = call noundef ptr @_ZNKSt8optionalINSt7__cxx1112basic_stringIcSt11char_traitsIcESaIcEEEEptEv(ptr noundef nonnull align 8 dereferenceable(40) %expected_targets_14) #3
  %call16 = call noundef ptr @_ZNKSt7__cxx1112basic_stringIcSt11char_traitsIcESaIcEE5c_strEv(ptr noundef nonnull align 8 dereferenceable(32) %call15) #3
  call void (ptr, i32, i32, ptr, ...) @gpr_log(ptr noundef @.str.6, i32 noundef 174, i32 noundef 2, ptr noundef @.str.21, ptr noundef %call16)
  br label %done

if.end17:                                         ; preds = %if.then11
  %target_ = getelementptr inbounds %"class.(anonymous namespace)::grpc_fake_channel_security_connector", ptr %this1, i32 0, i32 1
  %4 = load ptr, ptr %target_, align 8
  %5 = load ptr, ptr %lbs_and_backends, align 8
  %arrayidx = getelementptr inbounds ptr, ptr %5, i64 1
  %6 = load ptr, ptr %arrayidx, align 8
  %call18 = call noundef zeroext i1 @_ZNK12_GLOBAL__N_136grpc_fake_channel_security_connector17fake_check_targetEPKcS2_(ptr noundef nonnull align 8 dereferenceable(152) %this1, ptr noundef %4, ptr noundef %6)
  br i1 %call18, label %if.end22, label %if.then19

if.then19:                                        ; preds = %if.end17
  %target_20 = getelementptr inbounds %"class.(anonymous namespace)::grpc_fake_channel_security_connector", ptr %this1, i32 0, i32 1
  %7 = load ptr, ptr %target_20, align 8
  %8 = load ptr, ptr %lbs_and_backends, align 8
  %arrayidx21 = getelementptr inbounds ptr, ptr %8, i64 1
  %9 = load ptr, ptr %arrayidx21, align 8
  call void (ptr, i32, i32, ptr, ...) @gpr_log(ptr noundef @.str.6, i32 noundef 181, i32 noundef 2, ptr noundef @.str.22, ptr noundef %7, ptr noundef %9)
  br label %done

if.end22:                                         ; preds = %if.end17
  store i8 1, ptr %success, align 1
  br label %if.end30

if.else:                                          ; preds = %if.end10
  %target_23 = getelementptr inbounds %"class.(anonymous namespace)::grpc_fake_channel_security_connector", ptr %this1, i32 0, i32 1
  %10 = load ptr, ptr %target_23, align 8
  %11 = load ptr, ptr %lbs_and_backends, align 8
  %arrayidx24 = getelementptr inbounds ptr, ptr %11, i64 0
  %12 = load ptr, ptr %arrayidx24, align 8
  %call25 = call noundef zeroext i1 @_ZNK12_GLOBAL__N_136grpc_fake_channel_security_connector17fake_check_targetEPKcS2_(ptr noundef nonnull align 8 dereferenceable(152) %this1, ptr noundef %10, ptr noundef %12)
  br i1 %call25, label %if.end29, label %if.then26

if.then26:                                        ; preds = %if.else
  %target_27 = getelementptr inbounds %"class.(anonymous namespace)::grpc_fake_channel_security_connector", ptr %this1, i32 0, i32 1
  %13 = load ptr, ptr %target_27, align 8
  %14 = load ptr, ptr %lbs_and_backends, align 8
  %arrayidx28 = getelementptr inbounds ptr, ptr %14, i64 0
  %15 = load ptr, ptr %arrayidx28, align 8
  call void (ptr, i32, i32, ptr, ...) @gpr_log(ptr noundef @.str.6, i32 noundef 188, i32 noundef 2, ptr noundef @.str.23, ptr noundef %13, ptr noundef %15)
  br label %done

if.end29:                                         ; preds = %if.else
  store i8 1, ptr %success, align 1
  br label %if.end30

if.end30:                                         ; preds = %if.end29, %if.end22
  br label %done

done:                                             ; preds = %if.end30, %if.then26, %if.then19, %if.then13, %if.then6
  store i64 0, ptr %i, align 8
  br label %for.cond

for.cond:                                         ; preds = %for.inc, %done
  %16 = load i64, ptr %i, align 8
  %17 = load i64, ptr %lbs_and_backends_size, align 8
  %cmp31 = icmp ult i64 %16, %17
  br i1 %cmp31, label %for.body, label %for.end

for.body:                                         ; preds = %for.cond
  %18 = load ptr, ptr %lbs_and_backends, align 8
  %19 = load i64, ptr %i, align 8
  %arrayidx32 = getelementptr inbounds ptr, ptr %18, i64 %19
  %20 = load ptr, ptr %arrayidx32, align 8
  call void @gpr_free(ptr noundef %20)
  br label %for.inc

for.inc:                                          ; preds = %for.body
  %21 = load i64, ptr %i, align 8
  %inc = add i64 %21, 1
  store i64 %inc, ptr %i, align 8
  br label %for.cond, !llvm.loop !4

for.end:                                          ; preds = %for.cond
  %22 = load ptr, ptr %lbs_and_backends, align 8
  call void @gpr_free(ptr noundef %22)
  %23 = load i8, ptr %success, align 1
  %tobool33 = trunc i8 %23 to i1
  br i1 %tobool33, label %if.end35, label %if.then34

if.then34:                                        ; preds = %for.end
  call void @abort() #16
  unreachable

if.end35:                                         ; preds = %for.end, %if.then
  ret void
}

; Function Attrs: mustprogress uwtable
define internal void @_ZN12_GLOBAL__N_136grpc_fake_channel_security_connector10check_peerE8tsi_peerP13grpc_endpointRKN9grpc_core11ChannelArgsEPNS4_13RefCountedPtrI17grpc_auth_contextEEP12grpc_closure(ptr noundef nonnull align 8 dereferenceable(152) %this, ptr %peer.coerce0, i64 %peer.coerce1, ptr noundef %0, ptr noundef nonnull align 8 dereferenceable(8) %1, ptr noundef %auth_context, ptr noundef %on_peer_checked) unnamed_addr #4 align 2 {
entry:
  %peer = alloca %struct.tsi_peer, align 8
  %this.addr = alloca ptr, align 8
  %.addr = alloca ptr, align 8
  %.addr1 = alloca ptr, align 8
  %auth_context.addr = alloca ptr, align 8
  %on_peer_checked.addr = alloca ptr, align 8
  %agg.tmp = alloca %struct.tsi_peer, align 8
  %2 = getelementptr inbounds { ptr, i64 }, ptr %peer, i32 0, i32 0
  store ptr %peer.coerce0, ptr %2, align 8
  %3 = getelementptr inbounds { ptr, i64 }, ptr %peer, i32 0, i32 1
  store i64 %peer.coerce1, ptr %3, align 8
  store ptr %this, ptr %this.addr, align 8
  store ptr %0, ptr %.addr, align 8
  store ptr %1, ptr %.addr1, align 8
  store ptr %auth_context, ptr %auth_context.addr, align 8
  store ptr %on_peer_checked, ptr %on_peer_checked.addr, align 8
  %this2 = load ptr, ptr %this.addr, align 8
  call void @llvm.memcpy.p0.p0.i64(ptr align 8 %agg.tmp, ptr align 8 %peer, i64 16, i1 false)
  %4 = load ptr, ptr %auth_context.addr, align 8
  %5 = load ptr, ptr %on_peer_checked.addr, align 8
  %6 = getelementptr inbounds { ptr, i64 }, ptr %agg.tmp, i32 0, i32 0
  %7 = load ptr, ptr %6, align 8
  %8 = getelementptr inbounds { ptr, i64 }, ptr %agg.tmp, i32 0, i32 1
  %9 = load i64, ptr %8, align 8
  call void @_ZN12_GLOBAL__N_115fake_check_peerEP23grpc_security_connector8tsi_peerPN9grpc_core13RefCountedPtrI17grpc_auth_contextEEP12grpc_closure(ptr noundef %this2, ptr %7, i64 %9, ptr noundef %4, ptr noundef %5)
  call void @_ZNK12_GLOBAL__N_136grpc_fake_channel_security_connector22fake_secure_name_checkEv(ptr noundef nonnull align 8 dereferenceable(152) %this2)
  ret void
}