; Function Attrs: mustprogress uwtable
define internal void @_ZN12_GLOBAL__N_136grpc_fake_channel_security_connector10check_peerE8tsi_peerP13grpc_endpointRKN9grpc_core11ChannelArgsEPNS4_13RefCountedPtrI17grpc_auth_contextEEP12grpc_closure(ptr noundef nonnull align 8 dereferenceable(152) %this, ptr %peer.coerce0, i64 %peer.coerce1, ptr nocapture readnone %0, ptr nocapture nonnull readnone align 8 %1, ptr noundef %auth_context, ptr noundef %on_peer_checked) unnamed_addr #3 align 2 {
entry:
  %lbs_and_backends.i = alloca ptr, align 8
  %lbs_and_backends_size.i = alloca i64, align 8
  tail call fastcc void @_ZN12_GLOBAL__N_115fake_check_peerEP23grpc_security_connector8tsi_peerPN9grpc_core13RefCountedPtrI17grpc_auth_contextEEP12grpc_closure(ptr %peer.coerce0, i64 %peer.coerce1, ptr noundef %auth_context, ptr noundef %on_peer_checked)
  call void @llvm.lifetime.start.p0(i64 8, ptr nonnull %lbs_and_backends.i)
  call void @llvm.lifetime.start.p0(i64 8, ptr nonnull %lbs_and_backends_size.i)
  %expected_targets_.i = getelementptr inbounds i8, ptr %this, i64 64
  %_M_engaged.i.i.i = getelementptr inbounds i8, ptr %this, i64 96
  %2 = load i8, ptr %_M_engaged.i.i.i, align 8
  %3 = and i8 %2, 1
  %tobool.i.i.not.i = icmp eq i8 %3, 0
  br i1 %tobool.i.i.not.i, label %_ZNK12_GLOBAL__N_136grpc_fake_channel_security_connector22fake_secure_name_checkEv.exit, label %if.end.i

if.end.i:                                         ; preds = %entry
  store ptr null, ptr %lbs_and_backends.i, align 8
  store i64 0, ptr %lbs_and_backends_size.i, align 8
  %call4.i = tail call noundef ptr @_ZNKSt7__cxx1112basic_stringIcSt11char_traitsIcESaIcEE5c_strEv(ptr noundef nonnull align 8 dereferenceable(32) %expected_targets_.i) #19
  call void @_Z16gpr_string_splitPKcS0_PPPcPm(ptr noundef %call4.i, ptr noundef nonnull @.str.19, ptr noundef nonnull %lbs_and_backends.i, ptr noundef nonnull %lbs_and_backends_size.i)
  %4 = load i64, ptr %lbs_and_backends_size.i, align 8
  %5 = add i64 %4, -3
  %or.cond.i = icmp ult i64 %5, -2
  br i1 %or.cond.i, label %if.then6.i, label %if.end10.i

if.then6.i:                                       ; preds = %if.end.i
  %call9.i = call noundef ptr @_ZNKSt7__cxx1112basic_stringIcSt11char_traitsIcESaIcEE5c_strEv(ptr noundef nonnull align 8 dereferenceable(32) %expected_targets_.i) #19
  call void (ptr, i32, i32, ptr, ...) @gpr_log(ptr noundef nonnull @.str.6, i32 noundef 168, i32 noundef 2, ptr noundef nonnull @.str.20, ptr noundef %call9.i)
  br label %done.i

if.end10.i:                                       ; preds = %if.end.i
  %is_lb_channel_.i = getelementptr inbounds i8, ptr %this, i64 104
  %6 = load i8, ptr %is_lb_channel_.i, align 8
  %7 = and i8 %6, 1
  %tobool.not.i = icmp eq i8 %7, 0
  br i1 %tobool.not.i, label %if.else.i, label %if.then11.i

if.then11.i:                                      ; preds = %if.end10.i
  %cmp12.not.i = icmp eq i64 %4, 2
  br i1 %cmp12.not.i, label %if.end17.i, label %if.then13.i

if.then13.i:                                      ; preds = %if.then11.i
  %call16.i = call noundef ptr @_ZNKSt7__cxx1112basic_stringIcSt11char_traitsIcESaIcEE5c_strEv(ptr noundef nonnull align 8 dereferenceable(32) %expected_targets_.i) #19
  call void (ptr, i32, i32, ptr, ...) @gpr_log(ptr noundef nonnull @.str.6, i32 noundef 174, i32 noundef 2, ptr noundef nonnull @.str.21, ptr noundef %call16.i)
  br label %done.i

if.end17.i:                                       ; preds = %if.then11.i
  %target_.i = getelementptr inbounds i8, ptr %this, i64 56
  %8 = load ptr, ptr %target_.i, align 8
  %9 = load ptr, ptr %lbs_and_backends.i, align 8
  %arrayidx.i = getelementptr inbounds i8, ptr %9, i64 8
  %10 = load ptr, ptr %arrayidx.i, align 8
  %call18.i = call fastcc noundef zeroext i1 @_ZNK12_GLOBAL__N_136grpc_fake_channel_security_connector17fake_check_targetEPKcS2_(ptr noundef %8, ptr noundef %10)
  br i1 %call18.i, label %done.i, label %if.then19.i

if.then19.i:                                      ; preds = %if.end17.i
  %11 = load ptr, ptr %target_.i, align 8
  %12 = load ptr, ptr %lbs_and_backends.i, align 8
  %arrayidx21.i = getelementptr inbounds i8, ptr %12, i64 8
  %13 = load ptr, ptr %arrayidx21.i, align 8
  call void (ptr, i32, i32, ptr, ...) @gpr_log(ptr noundef nonnull @.str.6, i32 noundef 181, i32 noundef 2, ptr noundef nonnull @.str.22, ptr noundef %11, ptr noundef %13)
  br label %done.i

if.else.i:                                        ; preds = %if.end10.i
  %target_23.i = getelementptr inbounds i8, ptr %this, i64 56
  %14 = load ptr, ptr %target_23.i, align 8
  %15 = load ptr, ptr %lbs_and_backends.i, align 8
  %16 = load ptr, ptr %15, align 8
  %call25.i = call fastcc noundef zeroext i1 @_ZNK12_GLOBAL__N_136grpc_fake_channel_security_connector17fake_check_targetEPKcS2_(ptr noundef %14, ptr noundef %16)
  br i1 %call25.i, label %done.i, label %if.then26.i

if.then26.i:                                      ; preds = %if.else.i
  %17 = load ptr, ptr %target_23.i, align 8
  %18 = load ptr, ptr %lbs_and_backends.i, align 8
  %19 = load ptr, ptr %18, align 8
  call void (ptr, i32, i32, ptr, ...) @gpr_log(ptr noundef nonnull @.str.6, i32 noundef 188, i32 noundef 2, ptr noundef nonnull @.str.23, ptr noundef %17, ptr noundef %19)
  br label %done.i

done.i:                                           ; preds = %if.then26.i, %if.else.i, %if.then19.i, %if.end17.i, %if.then13.i, %if.then6.i
  %success.0.i = phi i1 [ false, %if.then6.i ], [ false, %if.then13.i ], [ false, %if.then19.i ], [ false, %if.then26.i ], [ true, %if.end17.i ], [ true, %if.else.i ]
  %20 = load i64, ptr %lbs_and_backends_size.i, align 8
  %cmp313.not.i = icmp eq i64 %20, 0
  br i1 %cmp313.not.i, label %for.end.i, label %for.body.i

for.body.i:                                       ; preds = %done.i, %for.body.i
  %i.04.i = phi i64 [ %inc.i, %for.body.i ], [ 0, %done.i ]
  %21 = load ptr, ptr %lbs_and_backends.i, align 8
  %arrayidx32.i = getelementptr inbounds ptr, ptr %21, i64 %i.04.i
  %22 = load ptr, ptr %arrayidx32.i, align 8
  call void @gpr_free(ptr noundef %22)
  %inc.i = add nuw i64 %i.04.i, 1
  %23 = load i64, ptr %lbs_and_backends_size.i, align 8
  %cmp31.i = icmp ult i64 %inc.i, %23
  br i1 %cmp31.i, label %for.body.i, label %for.end.i, !llvm.loop !10

for.end.i:                                        ; preds = %for.body.i, %done.i
  %24 = load ptr, ptr %lbs_and_backends.i, align 8
  call void @gpr_free(ptr noundef %24)
  br i1 %success.0.i, label %_ZNK12_GLOBAL__N_136grpc_fake_channel_security_connector22fake_secure_name_checkEv.exit, label %if.then34.i

if.then34.i:                                      ; preds = %for.end.i
  call void @abort() #21
  unreachable

_ZNK12_GLOBAL__N_136grpc_fake_channel_security_connector22fake_secure_name_checkEv.exit: ; preds = %entry, %for.end.i
  call void @llvm.lifetime.end.p0(i64 8, ptr nonnull %lbs_and_backends.i)
  call void @llvm.lifetime.end.p0(i64 8, ptr nonnull %lbs_and_backends_size.i)
  ret void
}